; Function Attrs: mustprogress nounwind uwtable
define void @_ZN5Yosys13memhasher_offEv() local_unnamed_addr #4 personality ptr @__gxx_personality_v0 {
  %1 = load ptr, ptr @_ZN5Yosys15memhasher_storeE, align 8, !tbaa !39
  %2 = load ptr, ptr getelementptr inbounds nuw (i8, ptr @_ZN5Yosys15memhasher_storeE, i64 8), align 8, !tbaa !39
  %.not56 = icmp eq ptr %1, %2
  br i1 %.not56, label %_ZNSt6vectorIPvSaIS0_EE5clearEv.exit, label %.lr.ph

._crit_edge:                                      ; preds = %6
  %.pre = load ptr, ptr @_ZN5Yosys15memhasher_storeE, align 8, !tbaa !34
  %.pre8 = load ptr, ptr getelementptr inbounds nuw (i8, ptr @_ZN5Yosys15memhasher_storeE, i64 8), align 8, !tbaa !38
  %.not.i.i = icmp eq ptr %.pre8, %.pre
  br i1 %.not.i.i, label %_ZNSt6vectorIPvSaIS0_EE5clearEv.exit, label %3

3:                                                ; preds = %._crit_edge
  store ptr %.pre, ptr getelementptr inbounds nuw (i8, ptr @_ZN5Yosys15memhasher_storeE, i64 8), align 8, !tbaa !38
  br label %_ZNSt6vectorIPvSaIS0_EE5clearEv.exit

_ZNSt6vectorIPvSaIS0_EE5clearEv.exit:             ; preds = %0, %._crit_edge, %3
  store i8 0, ptr @_ZN5Yosys16memhasher_activeE, align 1, !tbaa !16
  ret void

.lr.ph:                                           ; preds = %0, %6
  %.sroa.02.07 = phi ptr [ %7, %6 ], [ %1, %0 ]
  %4 = load ptr, ptr %.sroa.02.07, align 8, !tbaa !40
  %.not = icmp eq ptr %4, null
  br i1 %.not, label %6, label %5

5:                                                ; preds = %.lr.ph
  tail call void @free(ptr noundef nonnull %4) #39
  br label %6

6:                                                ; preds = %5, %.lr.ph
  %7 = getelementptr inbounds nuw i8, ptr %.sroa.02.07, i64 8
  %.not5 = icmp eq ptr %7, %2
  br i1 %.not5, label %._crit_edge, label %.lr.ph
}